; Function Attrs: mustprogress sspstrong uwtable
define noundef ptr @_ZN3tbb6detail2r117threading_control25register_public_referenceEv() local_unnamed_addr #0 align 2 personality ptr @__gxx_personality_v0 {
  %1 = alloca %"class.tbb::detail::d1::unique_scoped_lock", align 8
  call void @llvm.lifetime.start.p0(i64 8, ptr nonnull %1) #16
  store ptr null, ptr %1, align 8, !tbaa !118
  call void @_ZN3tbb6detail2d118unique_scoped_lockINS1_5mutexEE7acquireERS3_(ptr noundef nonnull align 8 dereferenceable(8) %1, ptr noundef nonnull align 1 dereferenceable(1) @_ZN3tbb6detail2r117threading_control25g_threading_control_mutexE)
  %2 = load ptr, ptr @_ZN3tbb6detail2r117threading_control19g_threading_controlE, align 8, !tbaa !149
  %.not.i = icmp eq ptr %2, null
  br i1 %.not.i, label %7, label %_ZN3tbb6detail2r117threading_control21get_threading_controlEb.exit

_ZN3tbb6detail2r117threading_control21get_threading_controlEb.exit: ; preds = %0
  %3 = getelementptr inbounds nuw i8, ptr %2, i64 12
  %4 = atomicrmw add ptr %3, i32 1 seq_cst, align 4
  %5 = getelementptr inbounds nuw i8, ptr %2, i64 8
  %6 = atomicrmw add ptr %5, i32 1 seq_cst, align 4
  br label %14

7:                                                ; preds = %0
  %8 = load ptr, ptr %1, align 8, !tbaa !118
  %9 = atomicrmw xchg ptr %8, i8 0 seq_cst, align 1
  invoke void @_ZN3tbb6detail2r121notify_by_address_oneEPv(ptr noundef nonnull align 1 dereferenceable(1) %8)
          to label %10 unwind label %12

10:                                               ; preds = %7
  store ptr null, ptr %1, align 8, !tbaa !118
  %11 = invoke noundef ptr @_ZN3tbb6detail2r117threading_control24create_threading_controlEv()
          to label %14 unwind label %12

12:                                               ; preds = %7, %10
  %13 = landingpad { ptr, i32 }
          cleanup
  call void @_ZN3tbb6detail2d118unique_scoped_lockINS1_5mutexEED2Ev(ptr noundef nonnull align 8 dereferenceable(8) %1) #16
  call void @llvm.lifetime.end.p0(i64 8, ptr nonnull %1) #16
  resume { ptr, i32 } %13

14:                                               ; preds = %_ZN3tbb6detail2r117threading_control21get_threading_controlEb.exit, %10
  %.0 = phi ptr [ %2, %_ZN3tbb6detail2r117threading_control21get_threading_controlEb.exit ], [ %11, %10 ]
  %15 = load ptr, ptr %1, align 8, !tbaa !118
  %.not.i4 = icmp eq ptr %15, null
  br i1 %.not.i4, label %_ZN3tbb6detail2d118unique_scoped_lockINS1_5mutexEED2Ev.exit, label %16

16:                                               ; preds = %14
  %17 = atomicrmw xchg ptr %15, i8 0 seq_cst, align 1
  invoke void @_ZN3tbb6detail2r121notify_by_address_oneEPv(ptr noundef nonnull align 1 dereferenceable(1) %15)
          to label %_ZN3tbb6detail2d118unique_scoped_lockINS1_5mutexEED2Ev.exit unwind label %18

18:                                               ; preds = %16
  %19 = landingpad { ptr, i32 }
          catch ptr null
  %20 = extractvalue { ptr, i32 } %19, 0
  call void @__clang_call_terminate(ptr %20) #22
  unreachable

_ZN3tbb6detail2d118unique_scoped_lockINS1_5mutexEED2Ev.exit: ; preds = %16, %14
  call void @llvm.lifetime.end.p0(i64 8, ptr nonnull %1) #16
  ret ptr %.0
}